; Function Attrs: mustprogress uwtable
define noundef zeroext i1 @_ZNK32pxrInternal_v0_24__pxrReserved__13Usd_CrateData15QueryTimeSampleERKNS_7SdfPathEdPNS_20SdfAbstractDataValueE(ptr noundef nonnull readonly align 8 captures(none) dereferenceable(32) %0, ptr noundef nonnull align 4 dereferenceable(8) %1, double noundef %2, ptr noundef %3) unnamed_addr #3 align 2 personality ptr @__gxx_personality_v0 {
  %5 = alloca %"class.pxrInternal_v0_24__pxrReserved__::VtValue", align 8
  %6 = getelementptr inbounds nuw i8, ptr %0, i64 24
  %7 = load ptr, ptr %6, align 8
  call void @llvm.lifetime.start.p0(i64 16, ptr nonnull %5)
  %.not.i = icmp eq ptr %3, null
  br i1 %.not.i, label %8, label %10

8:                                                ; preds = %4
  %9 = tail call noundef zeroext i1 @_ZNK32pxrInternal_v0_24__pxrReserved__17Usd_CrateDataImpl15QueryTimeSampleERKNS_7SdfPathEdPNS_7VtValueE(ptr noundef nonnull align 8 dereferenceable(96) %7, ptr noundef nonnull align 4 dereferenceable(8) %1, double noundef %2, ptr noundef null)
  br label %_ZNK32pxrInternal_v0_24__pxrReserved__17Usd_CrateDataImpl15QueryTimeSampleERKNS_7SdfPathEdPNS_20SdfAbstractDataValueE.exit

10:                                               ; preds = %4
  %11 = getelementptr inbounds nuw i8, ptr %5, i64 8
  store ptr null, ptr %11, align 8
  %12 = invoke noundef zeroext i1 @_ZNK32pxrInternal_v0_24__pxrReserved__17Usd_CrateDataImpl15QueryTimeSampleERKNS_7SdfPathEdPNS_7VtValueE(ptr noundef nonnull align 8 dereferenceable(96) %7, ptr noundef nonnull align 4 dereferenceable(8) %1, double noundef %2, ptr noundef nonnull %5)
          to label %13 unwind label %32

13:                                               ; preds = %10
  br i1 %12, label %14, label %18

14:                                               ; preds = %13
  %15 = load ptr, ptr %3, align 8
  %16 = load ptr, ptr %15, align 8
  %17 = invoke noundef zeroext i1 %16(ptr noundef nonnull align 8 dereferenceable(26) %3, ptr noundef nonnull align 8 dereferenceable(16) %5)
          to label %18 unwind label %32

18:                                               ; preds = %14, %13
  %19 = phi i1 [ false, %13 ], [ %17, %14 ]
  %20 = load ptr, ptr %11, align 8
  %21 = ptrtoint ptr %20 to i64
  %.not.i.i.i = icmp eq ptr %20, null
  %22 = and i64 %21, 3
  %23 = icmp eq i64 %22, 3
  %or.cond.i.i.i = or i1 %.not.i.i.i, %23
  br i1 %or.cond.i.i.i, label %_ZNK32pxrInternal_v0_24__pxrReserved__17Usd_CrateDataImpl15QueryTimeSampleERKNS_7SdfPathEdPNS_20SdfAbstractDataValueE.exit, label %24

24:                                               ; preds = %18
  %25 = and i64 %21, -8
  %26 = inttoptr i64 %25 to ptr
  %27 = getelementptr inbounds nuw i8, ptr %26, i64 32
  %28 = load ptr, ptr %27, align 8
  invoke void %28(ptr noundef nonnull align 8 dereferenceable(16) %5)
          to label %_ZNK32pxrInternal_v0_24__pxrReserved__17Usd_CrateDataImpl15QueryTimeSampleERKNS_7SdfPathEdPNS_20SdfAbstractDataValueE.exit unwind label %29

29:                                               ; preds = %24
  %30 = landingpad { ptr, i32 }
          catch ptr null
  %31 = extractvalue { ptr, i32 } %30, 0
  call void @__clang_call_terminate(ptr %31) #29
  unreachable

32:                                               ; preds = %14, %10
  %33 = landingpad { ptr, i32 }
          cleanup
  call void @_ZN32pxrInternal_v0_24__pxrReserved__7VtValueD2Ev(ptr noundef nonnull align 8 dereferenceable(16) %5) #26
  resume { ptr, i32 } %33

_ZNK32pxrInternal_v0_24__pxrReserved__17Usd_CrateDataImpl15QueryTimeSampleERKNS_7SdfPathEdPNS_20SdfAbstractDataValueE.exit: ; preds = %8, %18, %24
  %.0.i = phi i1 [ %9, %8 ], [ %19, %18 ], [ %19, %24 ]
  call void @llvm.lifetime.end.p0(i64 16, ptr nonnull %5)
  ret i1 %.0.i
}